target datalayout = "e-m:e-p270:32:32-p271:32:32-p272:64:64-i64:64-i128:128-f80:128-n8:16:32:64-S128"
target triple = "x86_64-pc-linux-gnu"

%"class.icu_77::UVector32" = type { %"class.icu_77::UObject", i32, i32, i32, ptr }
%"class.icu_77::UObject" = type { ptr }
%"class.icu_77::RuleBasedBreakIterator" = type <{ %"class.icu_77::BreakIterator", %struct.UText, ptr, i32, i32, i32, [4 x i8], ptr, ptr, ptr, ptr, i32, [4 x i8], ptr, %"class.icu_77::UCharCharacterIterator", i8, [7 x i8], ptr, i8, [7 x i8] }>
%"class.icu_77::BreakIterator" = type { %"class.icu_77::UObject", ptr, ptr, ptr }
%struct.UText = type { i32, i32, i32, i32, i64, i32, i32, i64, i32, i32, ptr, ptr, ptr, ptr, ptr, ptr, ptr, ptr, i64, i32, i32, i64, i32, i32 }
%"class.icu_77::UCharCharacterIterator" = type { %"class.icu_77::CharacterIterator", ptr }
%"class.icu_77::CharacterIterator" = type { %"class.icu_77::ForwardCharacterIterator", i32, i32, i32, i32 }
%"class.icu_77::ForwardCharacterIterator" = type { %"class.icu_77::UObject" }
%"class.icu_77::RuleBasedBreakIterator::BreakCache" = type { ptr, ptr, i32, i32, i32, i32, [128 x i32], [128 x i16], %"class.icu_77::UVector32" }

; Function Attrs: inlinehint mustprogress nounwind uwtable
define linkonce_odr noundef i32 @_ZN6icu_7722RuleBasedBreakIterator10BreakCache12modChunkSizeEi(i32 noundef %0) #5 comdat align 2 {
  %2 = alloca i32, align 4
  store i32 %0, ptr %2, align 4, !tbaa !22
  %3 = load i32, ptr %2, align 4, !tbaa !22
  %4 = and i32 %3, 127
  ret i32 %4
}

; Function Attrs: inlinehint mustprogress nounwind uwtable
define internal noundef signext i8 @_ZL9U_FAILURE10UErrorCode(i32 noundef %0) #5 {
  %2 = alloca i32, align 4
  store i32 %0, ptr %2, align 4, !tbaa !31
  %3 = load i32, ptr %2, align 4, !tbaa !31
  %4 = icmp sgt i32 %3, 0
  %5 = zext i1 %4 to i8
  ret i8 %5
}

; Function Attrs: mustprogress uwtable
define void @_ZN6icu_7722RuleBasedBreakIterator10BreakCache8previousER10UErrorCode(ptr noundef nonnull align 8 dereferenceable(832) %0, ptr noundef nonnull align 4 dereferenceable(4) %1) #0 align 2 {
  %3 = alloca ptr, align 8
  %4 = alloca ptr, align 8
  %5 = alloca i32, align 4
  store ptr %0, ptr %3, align 8, !tbaa !81
  store ptr %1, ptr %4, align 8, !tbaa !10
  %6 = load ptr, ptr %3, align 8
  %7 = load ptr, ptr %4, align 8, !tbaa !10
  %8 = load i32, ptr %7, align 4, !tbaa !31
  %9 = call noundef signext i8 @_ZL9U_FAILURE10UErrorCode(i32 noundef %8)
  %10 = icmp ne i8 %9, 0
  br i1 %10, label %11, label %12

11:                                               ; preds = %2
  br label %60

12:                                               ; preds = %2
  call void @llvm.lifetime.start.p0(i64 4, ptr %5) #8
  %13 = getelementptr inbounds nuw %"class.icu_77::RuleBasedBreakIterator::BreakCache", ptr %6, i32 0, i32 5
  %14 = load i32, ptr %13, align 4, !tbaa !87
  store i32 %14, ptr %5, align 4, !tbaa !22
  %15 = getelementptr inbounds nuw %"class.icu_77::RuleBasedBreakIterator::BreakCache", ptr %6, i32 0, i32 5
  %16 = load i32, ptr %15, align 4, !tbaa !87
  %17 = getelementptr inbounds nuw %"class.icu_77::RuleBasedBreakIterator::BreakCache", ptr %6, i32 0, i32 2
  %18 = load i32, ptr %17, align 8, !tbaa !84
  %19 = icmp eq i32 %16, %18
  br i1 %19, label %20, label %23

20:                                               ; preds = %12
  %21 = load ptr, ptr %4, align 8, !tbaa !10
  %22 = call noundef signext i8 @_ZN6icu_7722RuleBasedBreakIterator10BreakCache17populatePrecedingER10UErrorCode(ptr noundef nonnull align 8 dereferenceable(832) %6, ptr noundef nonnull align 4 dereferenceable(4) %21)
  br label %36

23:                                               ; preds = %12
  %24 = getelementptr inbounds nuw %"class.icu_77::RuleBasedBreakIterator::BreakCache", ptr %6, i32 0, i32 5
  %25 = load i32, ptr %24, align 4, !tbaa !87
  %26 = sub nsw i32 %25, 1
  %27 = call noundef i32 @_ZN6icu_7722RuleBasedBreakIterator10BreakCache12modChunkSizeEi(i32 noundef %26)
  %28 = getelementptr inbounds nuw %"class.icu_77::RuleBasedBreakIterator::BreakCache", ptr %6, i32 0, i32 5
  store i32 %27, ptr %28, align 4, !tbaa !87
  %29 = getelementptr inbounds nuw %"class.icu_77::RuleBasedBreakIterator::BreakCache", ptr %6, i32 0, i32 6
  %30 = getelementptr inbounds nuw %"class.icu_77::RuleBasedBreakIterator::BreakCache", ptr %6, i32 0, i32 5
  %31 = load i32, ptr %30, align 4, !tbaa !87
  %32 = sext i32 %31 to i64
  %33 = getelementptr inbounds [128 x i32], ptr %29, i64 0, i64 %32
  %34 = load i32, ptr %33, align 4, !tbaa !22
  %35 = getelementptr inbounds nuw %"class.icu_77::RuleBasedBreakIterator::BreakCache", ptr %6, i32 0, i32 4
  store i32 %34, ptr %35, align 8, !tbaa !86
  br label %36

36:                                               ; preds = %23, %20
  %37 = getelementptr inbounds nuw %"class.icu_77::RuleBasedBreakIterator::BreakCache", ptr %6, i32 0, i32 5
  %38 = load i32, ptr %37, align 4, !tbaa !87
  %39 = load i32, ptr %5, align 4, !tbaa !22
  %40 = icmp eq i32 %38, %39
  %41 = getelementptr inbounds nuw %"class.icu_77::RuleBasedBreakIterator::BreakCache", ptr %6, i32 0, i32 1
  %42 = load ptr, ptr %41, align 8, !tbaa !82
  %43 = getelementptr inbounds nuw %"class.icu_77::RuleBasedBreakIterator", ptr %42, i32 0, i32 15
  %44 = zext i1 %40 to i8
  store i8 %44, ptr %43, align 8, !tbaa !90
  %45 = getelementptr inbounds nuw %"class.icu_77::RuleBasedBreakIterator::BreakCache", ptr %6, i32 0, i32 4
  %46 = load i32, ptr %45, align 8, !tbaa !86
  %47 = getelementptr inbounds nuw %"class.icu_77::RuleBasedBreakIterator::BreakCache", ptr %6, i32 0, i32 1
  %48 = load ptr, ptr %47, align 8, !tbaa !82
  %49 = getelementptr inbounds nuw %"class.icu_77::RuleBasedBreakIterator", ptr %48, i32 0, i32 4
  store i32 %46, ptr %49, align 4, !tbaa !88
  %50 = getelementptr inbounds nuw %"class.icu_77::RuleBasedBreakIterator::BreakCache", ptr %6, i32 0, i32 7
  %51 = getelementptr inbounds nuw %"class.icu_77::RuleBasedBreakIterator::BreakCache", ptr %6, i32 0, i32 5
  %52 = load i32, ptr %51, align 4, !tbaa !87
  %53 = sext i32 %52 to i64
  %54 = getelementptr inbounds [128 x i16], ptr %50, i64 0, i64 %53
  %55 = load i16, ptr %54, align 2, !tbaa !63
  %56 = zext i16 %55 to i32
  %57 = getelementptr inbounds nuw %"class.icu_77::RuleBasedBreakIterator::BreakCache", ptr %6, i32 0, i32 1
  %58 = load ptr, ptr %57, align 8, !tbaa !82
  %59 = getelementptr inbounds nuw %"class.icu_77::RuleBasedBreakIterator", ptr %58, i32 0, i32 5
  store i32 %56, ptr %59, align 8, !tbaa !89
  call void @llvm.lifetime.end.p0(i64 4, ptr %5) #8
  br label %60

60:                                               ; preds = %36, %11
  ret void
}