; Function Attrs: mustprogress uwtable
define void @_ZN6icu_7722RuleBasedBreakIterator10BreakCache8previousER10UErrorCode(ptr noundef nonnull align 8 dereferenceable(832) %0, ptr noundef nonnull align 4 dereferenceable(4) %1) local_unnamed_addr #0 align 2 {
  %3 = load i32, ptr %1, align 4, !tbaa !24
  %4 = icmp slt i32 %3, 1
  br i1 %4, label %5, label %36

5:                                                ; preds = %2
  %6 = getelementptr inbounds nuw i8, ptr %0, i64 28
  %7 = load i32, ptr %6, align 4, !tbaa !76
  %8 = getelementptr inbounds nuw i8, ptr %0, i64 16
  %9 = load i32, ptr %8, align 8, !tbaa !73
  %10 = icmp eq i32 %7, %9
  br i1 %10, label %11, label %13

11:                                               ; preds = %5
  %12 = tail call noundef signext i8 @_ZN6icu_7722RuleBasedBreakIterator10BreakCache17populatePrecedingER10UErrorCode(ptr noundef nonnull align 8 dereferenceable(832) %0, ptr noundef nonnull align 4 dereferenceable(4) %1)
  %.pre = load i32, ptr %6, align 4, !tbaa !76
  %.phi.trans.insert = getelementptr inbounds nuw i8, ptr %0, i64 24
  %.pre3 = load i32, ptr %.phi.trans.insert, align 8, !tbaa !75
  br label %21

13:                                               ; preds = %5
  %14 = add i32 %7, 127
  %15 = and i32 %14, 127
  store i32 %15, ptr %6, align 4, !tbaa !76
  %16 = getelementptr inbounds nuw i8, ptr %0, i64 32
  %17 = zext nneg i32 %15 to i64
  %18 = getelementptr inbounds nuw [128 x i32], ptr %16, i64 0, i64 %17
  %19 = load i32, ptr %18, align 4, !tbaa !17
  %20 = getelementptr inbounds nuw i8, ptr %0, i64 24
  store i32 %19, ptr %20, align 8, !tbaa !75
  br label %21

21:                                               ; preds = %13, %11
  %22 = phi i32 [ %19, %13 ], [ %.pre3, %11 ]
  %23 = phi i32 [ %15, %13 ], [ %.pre, %11 ]
  %24 = icmp eq i32 %23, %7
  %25 = getelementptr inbounds nuw i8, ptr %0, i64 8
  %26 = load ptr, ptr %25, align 8, !tbaa !69
  %27 = getelementptr inbounds nuw i8, ptr %26, i64 280
  %28 = zext i1 %24 to i8
  store i8 %28, ptr %27, align 8, !tbaa !79
  %29 = getelementptr inbounds nuw i8, ptr %26, i64 188
  store i32 %22, ptr %29, align 4, !tbaa !77
  %30 = getelementptr inbounds nuw i8, ptr %0, i64 544
  %31 = sext i32 %23 to i64
  %32 = getelementptr inbounds [128 x i16], ptr %30, i64 0, i64 %31
  %33 = load i16, ptr %32, align 2, !tbaa !71
  %34 = zext i16 %33 to i32
  %35 = getelementptr inbounds nuw i8, ptr %26, i64 192
  store i32 %34, ptr %35, align 8, !tbaa !78
  br label %36

36:                                               ; preds = %2, %21
  ret void
}